; Function Attrs: nounwind uwtable
define hidden noundef i32 @dom_node_local_name_read(ptr noundef %0, ptr nocapture noundef writeonly %1) local_unnamed_addr #0 {
  %3 = tail call ptr @dom_object_get_node(ptr noundef %0) #12
  %4 = icmp eq ptr %3, null
  br i1 %4, label %5, label %6

5:                                                ; preds = %2
  tail call void @php_dom_throw_error(i32 noundef 11, i32 noundef 1) #12
  br label %24

6:                                                ; preds = %2
  %7 = getelementptr inbounds i8, ptr %3, i64 8
  %8 = load i32, ptr %7, align 8
  switch i32 %8, label %22 [
    i32 1, label %9
    i32 2, label %9
    i32 18, label %9
  ]

9:                                                ; preds = %6, %6, %6
  %10 = getelementptr inbounds i8, ptr %3, i64 16
  %11 = load ptr, ptr %10, align 8
  %12 = tail call i64 @strlen(ptr noundef nonnull dereferenceable(1) %11) #11
  %13 = and i64 %12, -8
  %14 = add i64 %13, 32
  %15 = tail call noalias ptr @_emalloc(i64 noundef %14) #10
  store i32 1, ptr %15, align 4
  %16 = getelementptr inbounds i8, ptr %15, i64 4
  store i32 22, ptr %16, align 4
  %17 = getelementptr inbounds i8, ptr %15, i64 8
  store i64 0, ptr %17, align 8
  %18 = getelementptr inbounds i8, ptr %15, i64 16
  store i64 %12, ptr %18, align 8
  %19 = getelementptr inbounds i8, ptr %15, i64 24
  tail call void @llvm.memcpy.p0.p0.i64(ptr nonnull align 8 %19, ptr align 1 %11, i64 %12, i1 false)
  %20 = getelementptr inbounds [1 x i8], ptr %19, i64 0, i64 %12
  store i8 0, ptr %20, align 1
  store ptr %15, ptr %1, align 8
  %21 = getelementptr inbounds i8, ptr %1, i64 8
  store i32 262, ptr %21, align 8
  br label %24

22:                                               ; preds = %6
  %23 = getelementptr inbounds i8, ptr %1, i64 8
  store i32 1, ptr %23, align 8
  br label %24

24:                                               ; preds = %9, %22, %5
  %.0 = phi i32 [ -1, %5 ], [ 0, %22 ], [ 0, %9 ]
  ret i32 %.0
}